target datalayout = "e-m:e-p270:32:32-p271:32:32-p272:64:64-i64:64-i128:128-f80:128-n8:16:32:64-S128"
target triple = "x86_64-pc-linux-gnu"

%struct.AVChannelLayout = type { i32, i32, %union.anon.1, ptr }
%union.anon.1 = type { i64 }
%struct.AVRational = type { i32, i32 }
%struct.AVFrame = type { [8 x ptr], [8 x i32], ptr, i32, i32, i32, i32, i32, %struct.AVRational, i64, i64, %struct.AVRational, i32, ptr, i32, i32, [8 x ptr], ptr, i32, ptr, i32, i32, i32, i32, i32, i32, i32, i64, ptr, i32, ptr, ptr, i64, i64, i64, i64, ptr, %struct.AVChannelLayout, i64 }

@avpriv_cga_font = external constant [2048 x i8], align 16

; Function Attrs: nounwind uwtable
define internal void @draw_htext(ptr noundef %0, i32 noundef %1, i32 noundef %2, i32 noundef %3, float noundef %4, float noundef %5, ptr noundef %6, ptr noundef %7) #1 {
  %9 = alloca ptr, align 8
  %10 = alloca i32, align 4
  %11 = alloca i32, align 4
  %12 = alloca i32, align 4
  %13 = alloca float, align 4
  %14 = alloca float, align 4
  %15 = alloca ptr, align 8
  %16 = alloca ptr, align 8
  %17 = alloca ptr, align 8
  %18 = alloca i32, align 4
  %19 = alloca i32, align 4
  %20 = alloca i32, align 4
  %21 = alloca i32, align 4
  %22 = alloca i32, align 4
  %23 = alloca i32, align 4
  %24 = alloca ptr, align 8
  store ptr %0, ptr %9, align 8, !tbaa !61
  store i32 %1, ptr %10, align 4, !tbaa !47
  store i32 %2, ptr %11, align 4, !tbaa !47
  store i32 %3, ptr %12, align 4, !tbaa !47
  store float %4, ptr %13, align 4, !tbaa !69
  store float %5, ptr %14, align 4, !tbaa !69
  store ptr %6, ptr %15, align 8, !tbaa !77
  store ptr %7, ptr %16, align 8, !tbaa !77
  call void @llvm.lifetime.start.p0(i64 8, ptr %17) #10
  call void @llvm.lifetime.start.p0(i64 4, ptr %18) #10
  call void @llvm.lifetime.start.p0(i64 4, ptr %19) #10
  call void @llvm.lifetime.start.p0(i64 4, ptr %20) #10
  store ptr @avpriv_cga_font, ptr %17, align 8, !tbaa !77
  store i32 8, ptr %18, align 4, !tbaa !47
  store i32 0, ptr %20, align 4, !tbaa !47
  br label %25

25:                                               ; preds = %142, %8
  %26 = load i32, ptr %20, align 4, !tbaa !47
  %27 = icmp slt i32 %26, 4
  br i1 %27, label %28, label %36

28:                                               ; preds = %25
  %29 = load ptr, ptr %9, align 8, !tbaa !61
  %30 = getelementptr inbounds nuw %struct.AVFrame, ptr %29, i32 0, i32 0
  %31 = load i32, ptr %20, align 4, !tbaa !47
  %32 = sext i32 %31 to i64
  %33 = getelementptr inbounds [8 x ptr], ptr %30, i64 0, i64 %32
  %34 = load ptr, ptr %33, align 8, !tbaa !77
  %35 = icmp ne ptr %34, null
  br label %36

36:                                               ; preds = %28, %25
  %37 = phi i1 [ false, %25 ], [ %35, %28 ]
  br i1 %37, label %38, label %145

38:                                               ; preds = %36
  store i32 0, ptr %19, align 4, !tbaa !47
  br label %39

39:                                               ; preds = %138, %38
  %40 = load ptr, ptr %15, align 8, !tbaa !77
  %41 = load i32, ptr %19, align 4, !tbaa !47
  %42 = sext i32 %41 to i64
  %43 = getelementptr inbounds i8, ptr %40, i64 %42
  %44 = load i8, ptr %43, align 1, !tbaa !68
  %45 = icmp ne i8 %44, 0
  br i1 %45, label %46, label %141

46:                                               ; preds = %39
  call void @llvm.lifetime.start.p0(i64 4, ptr %21) #10
  call void @llvm.lifetime.start.p0(i64 4, ptr %22) #10
  call void @llvm.lifetime.start.p0(i64 4, ptr %23) #10
  %47 = load ptr, ptr %16, align 8, !tbaa !77
  %48 = load i32, ptr %20, align 4, !tbaa !47
  %49 = sext i32 %48 to i64
  %50 = getelementptr inbounds i8, ptr %47, i64 %49
  %51 = load i8, ptr %50, align 1, !tbaa !68
  %52 = zext i8 %51 to i32
  store i32 %52, ptr %23, align 4, !tbaa !47
  call void @llvm.lifetime.start.p0(i64 8, ptr %24) #10
  %53 = load ptr, ptr %9, align 8, !tbaa !61
  %54 = getelementptr inbounds nuw %struct.AVFrame, ptr %53, i32 0, i32 0
  %55 = load i32, ptr %20, align 4, !tbaa !47
  %56 = sext i32 %55 to i64
  %57 = getelementptr inbounds [8 x ptr], ptr %54, i64 0, i64 %56
  %58 = load ptr, ptr %57, align 8, !tbaa !77
  %59 = load i32, ptr %11, align 4, !tbaa !47
  %60 = load ptr, ptr %9, align 8, !tbaa !61
  %61 = getelementptr inbounds nuw %struct.AVFrame, ptr %60, i32 0, i32 1
  %62 = load i32, ptr %20, align 4, !tbaa !47
  %63 = sext i32 %62 to i64
  %64 = getelementptr inbounds [8 x i32], ptr %61, i64 0, i64 %63
  %65 = load i32, ptr %64, align 4, !tbaa !47
  %66 = mul nsw i32 %59, %65
  %67 = sext i32 %66 to i64
  %68 = getelementptr inbounds i8, ptr %58, i64 %67
  %69 = load i32, ptr %10, align 4, !tbaa !47
  %70 = load i32, ptr %19, align 4, !tbaa !47
  %71 = mul nsw i32 %70, 8
  %72 = add nsw i32 %69, %71
  %73 = sext i32 %72 to i64
  %74 = getelementptr inbounds i8, ptr %68, i64 %73
  store ptr %74, ptr %24, align 8, !tbaa !77
  store i32 0, ptr %21, align 4, !tbaa !47
  br label %75

75:                                               ; preds = %134, %46
  %76 = load i32, ptr %21, align 4, !tbaa !47
  %77 = load i32, ptr %18, align 4, !tbaa !47
  %78 = icmp slt i32 %76, %77
  br i1 %78, label %79, label %137

79:                                               ; preds = %75
  store i32 128, ptr %22, align 4, !tbaa !47
  br label %80

80:                                               ; preds = %120, %79
  %81 = load i32, ptr %22, align 4, !tbaa !47
  %82 = icmp ne i32 %81, 0
  br i1 %82, label %83, label %123

83:                                               ; preds = %80
  %84 = load ptr, ptr %17, align 8, !tbaa !77
  %85 = load ptr, ptr %15, align 8, !tbaa !77
  %86 = load i32, ptr %19, align 4, !tbaa !47
  %87 = sext i32 %86 to i64
  %88 = getelementptr inbounds i8, ptr %85, i64 %87
  %89 = load i8, ptr %88, align 1, !tbaa !68
  %90 = sext i8 %89 to i32
  %91 = load i32, ptr %18, align 4, !tbaa !47
  %92 = mul nsw i32 %90, %91
  %93 = load i32, ptr %21, align 4, !tbaa !47
  %94 = add nsw i32 %92, %93
  %95 = sext i32 %94 to i64
  %96 = getelementptr inbounds i8, ptr %84, i64 %95
  %97 = load i8, ptr %96, align 1, !tbaa !68
  %98 = zext i8 %97 to i32
  %99 = load i32, ptr %22, align 4, !tbaa !47
  %100 = and i32 %98, %99
  %101 = icmp ne i32 %100, 0
  br i1 %101, label %102, label %117

102:                                              ; preds = %83
  %103 = load ptr, ptr %24, align 8, !tbaa !77
  %104 = getelementptr inbounds i8, ptr %103, i64 0
  %105 = load i8, ptr %104, align 1, !tbaa !68
  %106 = zext i8 %105 to i32
  %107 = sitofp i32 %106 to float
  %108 = load float, ptr %14, align 4, !tbaa !69
  %109 = load i32, ptr %23, align 4, !tbaa !47
  %110 = sitofp i32 %109 to float
  %111 = load float, ptr %13, align 4, !tbaa !69
  %112 = fmul nsz float %110, %111
  %113 = call nsz float @llvm.fmuladd.f32(float %107, float %108, float %112)
  %114 = fptoui float %113 to i8
  %115 = load ptr, ptr %24, align 8, !tbaa !77
  %116 = getelementptr inbounds i8, ptr %115, i64 0
  store i8 %114, ptr %116, align 1, !tbaa !68
  br label %117

117:                                              ; preds = %102, %83
  %118 = load ptr, ptr %24, align 8, !tbaa !77
  %119 = getelementptr inbounds nuw i8, ptr %118, i32 1
  store ptr %119, ptr %24, align 8, !tbaa !77
  br label %120

120:                                              ; preds = %117
  %121 = load i32, ptr %22, align 4, !tbaa !47
  %122 = ashr i32 %121, 1
  store i32 %122, ptr %22, align 4, !tbaa !47
  br label %80, !llvm.loop !212

123:                                              ; preds = %80
  %124 = load ptr, ptr %9, align 8, !tbaa !61
  %125 = getelementptr inbounds nuw %struct.AVFrame, ptr %124, i32 0, i32 1
  %126 = load i32, ptr %20, align 4, !tbaa !47
  %127 = sext i32 %126 to i64
  %128 = getelementptr inbounds [8 x i32], ptr %125, i64 0, i64 %127
  %129 = load i32, ptr %128, align 4, !tbaa !47
  %130 = sub nsw i32 %129, 8
  %131 = load ptr, ptr %24, align 8, !tbaa !77
  %132 = sext i32 %130 to i64
  %133 = getelementptr inbounds i8, ptr %131, i64 %132
  store ptr %133, ptr %24, align 8, !tbaa !77
  br label %134

134:                                              ; preds = %123
  %135 = load i32, ptr %21, align 4, !tbaa !47
  %136 = add nsw i32 %135, 1
  store i32 %136, ptr %21, align 4, !tbaa !47
  br label %75, !llvm.loop !213

137:                                              ; preds = %75
  call void @llvm.lifetime.end.p0(i64 8, ptr %24) #10
  call void @llvm.lifetime.end.p0(i64 4, ptr %23) #10
  call void @llvm.lifetime.end.p0(i64 4, ptr %22) #10
  call void @llvm.lifetime.end.p0(i64 4, ptr %21) #10
  br label %138

138:                                              ; preds = %137
  %139 = load i32, ptr %19, align 4, !tbaa !47
  %140 = add nsw i32 %139, 1
  store i32 %140, ptr %19, align 4, !tbaa !47
  br label %39, !llvm.loop !214

141:                                              ; preds = %39
  br label %142

142:                                              ; preds = %141
  %143 = load i32, ptr %20, align 4, !tbaa !47
  %144 = add nsw i32 %143, 1
  store i32 %144, ptr %20, align 4, !tbaa !47
  br label %25, !llvm.loop !215

145:                                              ; preds = %36
  call void @llvm.lifetime.end.p0(i64 4, ptr %20) #10
  call void @llvm.lifetime.end.p0(i64 4, ptr %19) #10
  call void @llvm.lifetime.end.p0(i64 4, ptr %18) #10
  call void @llvm.lifetime.end.p0(i64 8, ptr %17) #10
  ret void
}