; Function Attrs: nofree norecurse nosync nounwind memory(readwrite, inaccessiblemem: none) uwtable
define internal void @draw_htext(ptr noundef readonly captures(none) %0, i32 noundef %1, i32 noundef %2, i32 %3, float noundef %4, float noundef %5, ptr noundef readonly captures(none) %6, ptr noundef readonly captures(none) %7) #6 {
  %9 = getelementptr inbounds nuw i8, ptr %0, i64 64
  %10 = sext i32 %1 to i64
  br label %11

11:                                               ; preds = %8, %._crit_edge
  %indvars.iv51 = phi i64 [ 0, %8 ], [ %indvars.iv.next52, %._crit_edge ]
  %12 = getelementptr inbounds nuw [8 x ptr], ptr %0, i64 0, i64 %indvars.iv51
  %13 = load ptr, ptr %12, align 8, !tbaa !71
  %.not = icmp eq ptr %13, null
  br i1 %.not, label %.critedge, label %.preheader42

.preheader42:                                     ; preds = %11
  %14 = load i8, ptr %6, align 1, !tbaa !62
  %.not3947 = icmp eq i8 %14, 0
  br i1 %.not3947, label %._crit_edge, label %.lr.ph

.lr.ph:                                           ; preds = %.preheader42
  %15 = getelementptr inbounds nuw i8, ptr %7, i64 %indvars.iv51
  %16 = getelementptr inbounds nuw [8 x i32], ptr %9, i64 0, i64 %indvars.iv51
  %.pre = load i32, ptr %16, align 4, !tbaa !44
  br label %17

17:                                               ; preds = %.lr.ph, %54
  %18 = phi i32 [ %.pre, %.lr.ph ], [ %49, %54 ]
  %indvars.iv = phi i64 [ 0, %.lr.ph ], [ %indvars.iv.next, %54 ]
  %19 = getelementptr inbounds nuw i8, ptr %6, i64 %indvars.iv
  %20 = load i8, ptr %15, align 1, !tbaa !62
  %21 = load ptr, ptr %12, align 8, !tbaa !71
  %22 = mul nsw i32 %18, %2
  %23 = sext i32 %22 to i64
  %24 = getelementptr inbounds i8, ptr %21, i64 %23
  %25 = shl nsw i64 %indvars.iv, 3
  %26 = getelementptr i8, ptr %24, i64 %25
  %27 = getelementptr i8, ptr %26, i64 %10
  %28 = uitofp i8 %20 to float
  %29 = fmul nsz float %4, %28
  br label %.preheader

.preheader:                                       ; preds = %17, %48
  %.046 = phi ptr [ %27, %17 ], [ %52, %48 ]
  %.03745 = phi i32 [ 0, %17 ], [ %53, %48 ]
  br label %30

30:                                               ; preds = %.preheader, %45
  %.144 = phi ptr [ %.046, %.preheader ], [ %46, %45 ]
  %.03643 = phi i32 [ 128, %.preheader ], [ %47, %45 ]
  %31 = load i8, ptr %19, align 1, !tbaa !62
  %32 = sext i8 %31 to i32
  %33 = shl nsw i32 %32, 3
  %34 = add nuw nsw i32 %33, %.03745
  %35 = sext i32 %34 to i64
  %36 = getelementptr inbounds i8, ptr @avpriv_cga_font, i64 %35
  %37 = load i8, ptr %36, align 1, !tbaa !62
  %38 = zext i8 %37 to i32
  %39 = and i32 %.03643, %38
  %.not41 = icmp eq i32 %39, 0
  br i1 %.not41, label %45, label %40

40:                                               ; preds = %30
  %41 = load i8, ptr %.144, align 1, !tbaa !62
  %42 = uitofp i8 %41 to float
  %43 = tail call nsz float @llvm.fmuladd.f32(float %42, float %5, float %29)
  %44 = fptoui float %43 to i8
  store i8 %44, ptr %.144, align 1, !tbaa !62
  br label %45

45:                                               ; preds = %40, %30
  %46 = getelementptr inbounds nuw i8, ptr %.144, i64 1
  %47 = lshr i32 %.03643, 1
  %.not40 = icmp samesign ult i32 %.03643, 2
  br i1 %.not40, label %48, label %30, !llvm.loop !251

48:                                               ; preds = %45
  %49 = load i32, ptr %16, align 4, !tbaa !44
  %50 = sext i32 %49 to i64
  %51 = getelementptr i8, ptr %46, i64 %50
  %52 = getelementptr i8, ptr %51, i64 -8
  %53 = add nuw nsw i32 %.03745, 1
  %exitcond.not = icmp eq i32 %53, 8
  br i1 %exitcond.not, label %54, label %.preheader, !llvm.loop !252

54:                                               ; preds = %48
  %indvars.iv.next = add nuw nsw i64 %indvars.iv, 1
  %55 = getelementptr inbounds nuw i8, ptr %6, i64 %indvars.iv.next
  %56 = load i8, ptr %55, align 1, !tbaa !62
  %.not39 = icmp eq i8 %56, 0
  br i1 %.not39, label %._crit_edge, label %17, !llvm.loop !253

._crit_edge:                                      ; preds = %54, %.preheader42
  %indvars.iv.next52 = add nuw nsw i64 %indvars.iv51, 1
  %exitcond54.not = icmp eq i64 %indvars.iv.next52, 4
  br i1 %exitcond54.not, label %.critedge, label %11, !llvm.loop !254

.critedge:                                        ; preds = %._crit_edge, %11
  ret void
}